; ModuleID = '46/1120.c'
source_filename = "46/1120.c"
target datalayout = "e-m:e-p270:32:32-p271:32:32-p272:64:64-i64:64-f80:128-n8:16:32:64-S128"
target triple = "x86_64-pc-linux-gnu"

@.str = private unnamed_addr constant [6 x i8] c"%d %d\00", align 1
@.str.1 = private unnamed_addr constant [3 x i8] c"%d\00", align 1
@.str.2 = private unnamed_addr constant [4 x i8] c"%d\0A\00", align 1

; Function Attrs: noinline nounwind uwtable
define dso_local i32 @main() #0 {
  %1 = alloca i32, align 4
  %2 = alloca [100 x [100 x i32]], align 16
  %3 = alloca i32, align 4
  %4 = alloca i32, align 4
  %5 = alloca i32, align 4
  %6 = alloca i32, align 4
  %7 = alloca i32, align 4
  %8 = alloca i32, align 4
  %9 = alloca i32, align 4
  %10 = alloca i32, align 4
  %11 = alloca i32, align 4
  %12 = alloca i32, align 4
  store i32 0, i32* %1, align 4
  %13 = call i32 (i8*, ...) @__isoc99_scanf(i8* getelementptr inbounds ([6 x i8], [6 x i8]* @.str, i64 0, i64 0), i32* %3, i32* %4)
  store i32 0, i32* %5, align 4
  br label %14

14:                                               ; preds = %35, %0
  %15 = load i32, i32* %5, align 4
  %16 = load i32, i32* %3, align 4
  %17 = icmp slt i32 %15, %16
  br i1 %17, label %18, label %38

18:                                               ; preds = %14
  store i32 0, i32* %6, align 4
  br label %19

19:                                               ; preds = %31, %18
  %20 = load i32, i32* %6, align 4
  %21 = load i32, i32* %4, align 4
  %22 = icmp slt i32 %20, %21
  br i1 %22, label %23, label %34

23:                                               ; preds = %19
  %24 = load i32, i32* %5, align 4
  %25 = sext i32 %24 to i64
  %26 = getelementptr inbounds [100 x [100 x i32]], [100 x [100 x i32]]* %2, i64 0, i64 %25
  %27 = load i32, i32* %6, align 4
  %28 = sext i32 %27 to i64
  %29 = getelementptr inbounds [100 x i32], [100 x i32]* %26, i64 0, i64 %28
  %30 = call i32 (i8*, ...) @__isoc99_scanf(i8* getelementptr inbounds ([3 x i8], [3 x i8]* @.str.1, i64 0, i64 0), i32* %29)
  br label %31

31:                                               ; preds = %23
  %32 = load i32, i32* %6, align 4
  %33 = add nsw i32 %32, 1
  store i32 %33, i32* %6, align 4
  br label %19

34:                                               ; preds = %19
  br label %35

35:                                               ; preds = %34
  %36 = load i32, i32* %5, align 4
  %37 = add nsw i32 %36, 1
  store i32 %37, i32* %5, align 4
  br label %14

38:                                               ; preds = %14
  store i32 0, i32* %7, align 4
  %39 = load i32, i32* %3, align 4
  %40 = sub nsw i32 %39, 1
  store i32 %40, i32* %8, align 4
  store i32 0, i32* %9, align 4
  %41 = load i32, i32* %4, align 4
  %42 = sub nsw i32 %41, 1
  store i32 %42, i32* %10, align 4
  br label %43

43:                                               ; preds = %125, %38
  %44 = load i32, i32* %7, align 4
  %45 = load i32, i32* %8, align 4
  %46 = icmp slt i32 %44, %45
  br i1 %46, label %47, label %51

47:                                               ; preds = %43
  %48 = load i32, i32* %9, align 4
  %49 = load i32, i32* %10, align 4
  %50 = icmp slt i32 %48, %49
  br label %51

51:                                               ; preds = %47, %43
  %52 = phi i1 [ false, %43 ], [ %50, %47 ]
  br i1 %52, label %53, label %134

53:                                               ; preds = %51
  %54 = load i32, i32* %9, align 4
  store i32 %54, i32* %12, align 4
  br label %55

55:                                               ; preds = %68, %53
  %56 = load i32, i32* %12, align 4
  %57 = load i32, i32* %10, align 4
  %58 = icmp slt i32 %56, %57
  br i1 %58, label %59, label %71

59:                                               ; preds = %55
  %60 = load i32, i32* %7, align 4
  %61 = sext i32 %60 to i64
  %62 = getelementptr inbounds [100 x [100 x i32]], [100 x [100 x i32]]* %2, i64 0, i64 %61
  %63 = load i32, i32* %12, align 4
  %64 = sext i32 %63 to i64
  %65 = getelementptr inbounds [100 x i32], [100 x i32]* %62, i64 0, i64 %64
  %66 = load i32, i32* %65, align 4
  %67 = call i32 (i8*, ...) @printf(i8* getelementptr inbounds ([4 x i8], [4 x i8]* @.str.2, i64 0, i64 0), i32 %66)
  br label %68

68:                                               ; preds = %59
  %69 = load i32, i32* %12, align 4
  %70 = add nsw i32 %69, 1
  store i32 %70, i32* %12, align 4
  br label %55

71:                                               ; preds = %55
  %72 = load i32, i32* %7, align 4
  store i32 %72, i32* %11, align 4
  br label %73

73:                                               ; preds = %86, %71
  %74 = load i32, i32* %11, align 4
  %75 = load i32, i32* %8, align 4
  %76 = icmp slt i32 %74, %75
  br i1 %76, label %77, label %89

77:                                               ; preds = %73
  %78 = load i32, i32* %11, align 4
  %79 = sext i32 %78 to i64
  %80 = getelementptr inbounds [100 x [100 x i32]], [100 x [100 x i32]]* %2, i64 0, i64 %79
  %81 = load i32, i32* %10, align 4
  %82 = sext i32 %81 to i64
  %83 = getelementptr inbounds [100 x i32], [100 x i32]* %80, i64 0, i64 %82
  %84 = load i32, i32* %83, align 4
  %85 = call i32 (i8*, ...) @printf(i8* getelementptr inbounds ([4 x i8], [4 x i8]* @.str.2, i64 0, i64 0), i32 %84)
  br label %86

86:                                               ; preds = %77
  %87 = load i32, i32* %11, align 4
  %88 = add nsw i32 %87, 1
  store i32 %88, i32* %11, align 4
  br label %73

89:                                               ; preds = %73
  %90 = load i32, i32* %10, align 4
  store i32 %90, i32* %12, align 4
  br label %91

91:                                               ; preds = %104, %89
  %92 = load i32, i32* %12, align 4
  %93 = load i32, i32* %9, align 4
  %94 = icmp sgt i32 %92, %93
  br i1 %94, label %95, label %107

95:                                               ; preds = %91
  %96 = load i32, i32* %8, align 4
  %97 = sext i32 %96 to i64
  %98 = getelementptr inbounds [100 x [100 x i32]], [100 x [100 x i32]]* %2, i64 0, i64 %97
  %99 = load i32, i32* %12, align 4
  %100 = sext i32 %99 to i64
  %101 = getelementptr inbounds [100 x i32], [100 x i32]* %98, i64 0, i64 %100
  %102 = load i32, i32* %101, align 4
  %103 = call i32 (i8*, ...) @printf(i8* getelementptr inbounds ([4 x i8], [4 x i8]* @.str.2, i64 0, i64 0), i32 %102)
  br label %104

104:                                              ; preds = %95
  %105 = load i32, i32* %12, align 4
  %106 = add nsw i32 %105, -1
  store i32 %106, i32* %12, align 4
  br label %91

107:                                              ; preds = %91
  %108 = load i32, i32* %8, align 4
  store i32 %108, i32* %11, align 4
  br label %109

109:                                              ; preds = %122, %107
  %110 = load i32, i32* %11, align 4
  %111 = load i32, i32* %7, align 4
  %112 = icmp sgt i32 %110, %111
  br i1 %112, label %113, label %125

113:                                              ; preds = %109
  %114 = load i32, i32* %11, align 4
  %115 = sext i32 %114 to i64
  %116 = getelementptr inbounds [100 x [100 x i32]], [100 x [100 x i32]]* %2, i64 0, i64 %115
  %117 = load i32, i32* %9, align 4
  %118 = sext i32 %117 to i64
  %119 = getelementptr inbounds [100 x i32], [100 x i32]* %116, i64 0, i64 %118
  %120 = load i32, i32* %119, align 4
  %121 = call i32 (i8*, ...) @printf(i8* getelementptr inbounds ([4 x i8], [4 x i8]* @.str.2, i64 0, i64 0), i32 %120)
  br label %122

122:                                              ; preds = %113
  %123 = load i32, i32* %11, align 4
  %124 = add nsw i32 %123, -1
  store i32 %124, i32* %11, align 4
  br label %109

125:                                              ; preds = %109
  %126 = load i32, i32* %7, align 4
  %127 = add nsw i32 %126, 1
  store i32 %127, i32* %7, align 4
  %128 = load i32, i32* %8, align 4
  %129 = add nsw i32 %128, -1
  store i32 %129, i32* %8, align 4
  %130 = load i32, i32* %9, align 4
  %131 = add nsw i32 %130, 1
  store i32 %131, i32* %9, align 4
  %132 = load i32, i32* %10, align 4
  %133 = add nsw i32 %132, -1
  store i32 %133, i32* %10, align 4
  br label %43

134:                                              ; preds = %51
  %135 = load i32, i32* %7, align 4
  %136 = load i32, i32* %8, align 4
  %137 = icmp eq i32 %135, %136
  br i1 %137, label %138, label %151

138:                                              ; preds = %134
  %139 = load i32, i32* %9, align 4
  %140 = load i32, i32* %10, align 4
  %141 = icmp eq i32 %139, %140
  br i1 %141, label %142, label %151

142:                                              ; preds = %138
  %143 = load i32, i32* %7, align 4
  %144 = sext i32 %143 to i64
  %145 = getelementptr inbounds [100 x [100 x i32]], [100 x [100 x i32]]* %2, i64 0, i64 %144
  %146 = load i32, i32* %9, align 4
  %147 = sext i32 %146 to i64
  %148 = getelementptr inbounds [100 x i32], [100 x i32]* %145, i64 0, i64 %147
  %149 = load i32, i32* %148, align 4
  %150 = call i32 (i8*, ...) @printf(i8* getelementptr inbounds ([4 x i8], [4 x i8]* @.str.2, i64 0, i64 0), i32 %149)
  br label %151

151:                                              ; preds = %142, %138, %134
  %152 = load i32, i32* %7, align 4
  %153 = load i32, i32* %8, align 4
  %154 = icmp eq i32 %152, %153
  br i1 %154, label %155, label %178

155:                                              ; preds = %151
  %156 = load i32, i32* %9, align 4
  %157 = load i32, i32* %10, align 4
  %158 = icmp ne i32 %156, %157
  br i1 %158, label %159, label %178

159:                                              ; preds = %155
  %160 = load i32, i32* %9, align 4
  store i32 %160, i32* %11, align 4
  br label %161

161:                                              ; preds = %174, %159
  %162 = load i32, i32* %11, align 4
  %163 = load i32, i32* %10, align 4
  %164 = icmp sle i32 %162, %163
  br i1 %164, label %165, label %177

165:                                              ; preds = %161
  %166 = load i32, i32* %7, align 4
  %167 = sext i32 %166 to i64
  %168 = getelementptr inbounds [100 x [100 x i32]], [100 x [100 x i32]]* %2, i64 0, i64 %167
  %169 = load i32, i32* %11, align 4
  %170 = sext i32 %169 to i64
  %171 = getelementptr inbounds [100 x i32], [100 x i32]* %168, i64 0, i64 %170
  %172 = load i32, i32* %171, align 4
  %173 = call i32 (i8*, ...) @printf(i8* getelementptr inbounds ([4 x i8], [4 x i8]* @.str.2, i64 0, i64 0), i32 %172)
  br label %174

174:                                              ; preds = %165
  %175 = load i32, i32* %11, align 4
  %176 = add nsw i32 %175, 1
  store i32 %176, i32* %11, align 4
  br label %161

177:                                              ; preds = %161
  br label %178

178:                                              ; preds = %177, %155, %151
  %179 = load i32, i32* %9, align 4
  %180 = load i32, i32* %10, align 4
  %181 = icmp eq i32 %179, %180
  br i1 %181, label %182, label %205

182:                                              ; preds = %178
  %183 = load i32, i32* %7, align 4
  %184 = load i32, i32* %8, align 4
  %185 = icmp ne i32 %183, %184
  br i1 %185, label %186, label %205

186:                                              ; preds = %182
  %187 = load i32, i32* %7, align 4
  store i32 %187, i32* %11, align 4
  br label %188

188:                                              ; preds = %201, %186
  %189 = load i32, i32* %11, align 4
  %190 = load i32, i32* %8, align 4
  %191 = icmp sle i32 %189, %190
  br i1 %191, label %192, label %204

192:                                              ; preds = %188
  %193 = load i32, i32* %11, align 4
  %194 = sext i32 %193 to i64
  %195 = getelementptr inbounds [100 x [100 x i32]], [100 x [100 x i32]]* %2, i64 0, i64 %194
  %196 = load i32, i32* %9, align 4
  %197 = sext i32 %196 to i64
  %198 = getelementptr inbounds [100 x i32], [100 x i32]* %195, i64 0, i64 %197
  %199 = load i32, i32* %198, align 4
  %200 = call i32 (i8*, ...) @printf(i8* getelementptr inbounds ([4 x i8], [4 x i8]* @.str.2, i64 0, i64 0), i32 %199)
  br label %201

201:                                              ; preds = %192
  %202 = load i32, i32* %11, align 4
  %203 = add nsw i32 %202, 1
  store i32 %203, i32* %11, align 4
  br label %188

204:                                              ; preds = %188
  br label %205

205:                                              ; preds = %204, %182, %178
  ret i32 0
}

declare dso_local i32 @__isoc99_scanf(i8*, ...) #1

declare dso_local i32 @printf(i8*, ...) #1


!llvm.module.flags = !{!0}
!llvm.ident = !{!1}

!0 = !{i32 1, !"wchar_size", i32 4}
!1 = !{!"clang version 10.0.0-4ubuntu1 "}
